; Function Attrs: nounwind uwtable
define i32 @avio_rb32(ptr noundef %0) local_unnamed_addr #3 {
  %2 = getelementptr inbounds nuw i8, ptr %0, i64 24
  %3 = load ptr, ptr %2, align 8, !tbaa !16
  %4 = getelementptr inbounds nuw i8, ptr %0, i64 32
  %5 = load ptr, ptr %4, align 8, !tbaa !19
  %.not.i.i = icmp ult ptr %3, %5
  br i1 %.not.i.i, label %7, label %6

6:                                                ; preds = %1
  tail call fastcc void @fill_buffer(ptr noundef nonnull %0)
  %.pre.i.i = load ptr, ptr %2, align 8, !tbaa !16
  %.pre7.i.i = load ptr, ptr %4, align 8, !tbaa !19
  br label %7

7:                                                ; preds = %6, %1
  %8 = phi ptr [ %.pre7.i.i, %6 ], [ %5, %1 ]
  %9 = phi ptr [ %.pre.i.i, %6 ], [ %3, %1 ]
  %10 = icmp ult ptr %9, %8
  br i1 %10, label %11, label %avio_r8.exit.i

11:                                               ; preds = %7
  %12 = getelementptr inbounds nuw i8, ptr %9, i64 1
  store ptr %12, ptr %2, align 8, !tbaa !16
  %13 = load i8, ptr %9, align 1, !tbaa !33
  %14 = zext i8 %13 to i32
  %15 = shl nuw nsw i32 %14, 8
  br label %avio_r8.exit.i

avio_r8.exit.i:                                   ; preds = %11, %7
  %16 = phi ptr [ %12, %11 ], [ %9, %7 ]
  %.0.i.i = phi i32 [ %15, %11 ], [ 0, %7 ]
  %.not.i3.i = icmp ult ptr %16, %8
  br i1 %.not.i3.i, label %18, label %17

17:                                               ; preds = %avio_r8.exit.i
  tail call fastcc void @fill_buffer(ptr noundef nonnull %0)
  %.pre.i4.i = load ptr, ptr %2, align 8, !tbaa !16
  %.pre7.i5.i = load ptr, ptr %4, align 8, !tbaa !19
  br label %18

18:                                               ; preds = %17, %avio_r8.exit.i
  %19 = phi ptr [ %.pre7.i5.i, %17 ], [ %8, %avio_r8.exit.i ]
  %20 = phi ptr [ %.pre.i4.i, %17 ], [ %16, %avio_r8.exit.i ]
  %21 = icmp ult ptr %20, %19
  br i1 %21, label %22, label %avio_rb16.exit

22:                                               ; preds = %18
  %23 = getelementptr inbounds nuw i8, ptr %20, i64 1
  store ptr %23, ptr %2, align 8, !tbaa !16
  %24 = load i8, ptr %20, align 1, !tbaa !33
  %25 = zext i8 %24 to i32
  br label %avio_rb16.exit

avio_rb16.exit:                                   ; preds = %18, %22
  %26 = phi ptr [ %23, %22 ], [ %20, %18 ]
  %.0.i6.i = phi i32 [ %25, %22 ], [ 0, %18 ]
  %.not.i.i3 = icmp ult ptr %26, %19
  br i1 %.not.i.i3, label %28, label %27

27:                                               ; preds = %avio_rb16.exit
  tail call fastcc void @fill_buffer(ptr noundef nonnull %0)
  %.pre.i.i4 = load ptr, ptr %2, align 8, !tbaa !16
  %.pre7.i.i5 = load ptr, ptr %4, align 8, !tbaa !19
  br label %28

28:                                               ; preds = %27, %avio_rb16.exit
  %29 = phi ptr [ %.pre7.i.i5, %27 ], [ %19, %avio_rb16.exit ]
  %30 = phi ptr [ %.pre.i.i4, %27 ], [ %26, %avio_rb16.exit ]
  %31 = icmp ult ptr %30, %29
  br i1 %31, label %32, label %avio_r8.exit.i6

32:                                               ; preds = %28
  %33 = getelementptr inbounds nuw i8, ptr %30, i64 1
  store ptr %33, ptr %2, align 8, !tbaa !16
  %34 = load i8, ptr %30, align 1, !tbaa !33
  %35 = zext i8 %34 to i32
  %36 = shl nuw nsw i32 %35, 8
  br label %avio_r8.exit.i6

avio_r8.exit.i6:                                  ; preds = %32, %28
  %37 = phi ptr [ %33, %32 ], [ %30, %28 ]
  %.0.i.i7 = phi i32 [ %36, %32 ], [ 0, %28 ]
  %.not.i3.i8 = icmp ult ptr %37, %29
  br i1 %.not.i3.i8, label %39, label %38

38:                                               ; preds = %avio_r8.exit.i6
  tail call fastcc void @fill_buffer(ptr noundef nonnull %0)
  %.pre.i4.i9 = load ptr, ptr %2, align 8, !tbaa !16
  %.pre7.i5.i10 = load ptr, ptr %4, align 8, !tbaa !19
  br label %39

39:                                               ; preds = %38, %avio_r8.exit.i6
  %40 = phi ptr [ %.pre7.i5.i10, %38 ], [ %29, %avio_r8.exit.i6 ]
  %41 = phi ptr [ %.pre.i4.i9, %38 ], [ %37, %avio_r8.exit.i6 ]
  %42 = icmp ult ptr %41, %40
  br i1 %42, label %43, label %avio_rb16.exit12

43:                                               ; preds = %39
  %44 = getelementptr inbounds nuw i8, ptr %41, i64 1
  store ptr %44, ptr %2, align 8, !tbaa !16
  %45 = load i8, ptr %41, align 1, !tbaa !33
  %46 = zext i8 %45 to i32
  br label %avio_rb16.exit12

avio_rb16.exit12:                                 ; preds = %39, %43
  %.0.i6.i11 = phi i32 [ %46, %43 ], [ 0, %39 ]
  %47 = or disjoint i32 %.0.i6.i, %.0.i.i
  %48 = shl nuw i32 %47, 16
  %49 = or disjoint i32 %.0.i.i7, %.0.i6.i11
  %50 = add nuw nsw i32 %49, %48
  ret i32 %50
}